target datalayout = "e-m:e-p270:32:32-p271:32:32-p272:64:64-i64:64-i128:128-f80:128-n8:16:32:64-S128"
target triple = "x86_64-pc-linux-gnu"

%"class.std::basic_string_view" = type { i64, ptr }

@_ZN4absl14ascii_internal8kToUpperE = external constant [256 x i8], align 16
@_ZN4absl14ascii_internal8kToLowerE = external constant [256 x i8], align 16

; Function Attrs: mustprogress nounwind uwtable
define linkonce_odr dso_local noundef ptr @_ZNSt11char_traitsIcE4findEPKcmRS1_(ptr noundef %0, i64 noundef %1, ptr noundef nonnull align 1 dereferenceable(1) %2) #0 comdat align 2 {
  %4 = alloca ptr, align 8
  %5 = alloca ptr, align 8
  %6 = alloca i64, align 8
  %7 = alloca ptr, align 8
  store ptr %0, ptr %5, align 8, !tbaa !16
  store i64 %1, ptr %6, align 8, !tbaa !15
  store ptr %2, ptr %7, align 8, !tbaa !16
  %8 = load i64, ptr %6, align 8, !tbaa !15
  %9 = icmp eq i64 %8, 0
  br i1 %9, label %10, label %11

10:                                               ; preds = %3
  store ptr null, ptr %4, align 8
  br label %18

11:                                               ; preds = %3
  %12 = load ptr, ptr %5, align 8, !tbaa !16
  %13 = load ptr, ptr %7, align 8, !tbaa !16
  %14 = load i8, ptr %13, align 1, !tbaa !19
  %15 = sext i8 %14 to i32
  %16 = load i64, ptr %6, align 8, !tbaa !15
  %17 = call ptr @memchr(ptr noundef %12, i32 noundef %15, i64 noundef %16) #13
  store ptr %17, ptr %4, align 8
  br label %18

18:                                               ; preds = %11, %10
  %19 = load ptr, ptr %4, align 8
  ret ptr %19
}

; Function Attrs: mustprogress nounwind uwtable
define linkonce_odr dso_local noundef i64 @_ZNKSt17basic_string_viewIcSt11char_traitsIcEE13find_first_ofEPKcmm(ptr noundef nonnull align 8 dereferenceable(16) %0, ptr noundef %1, i64 noundef %2, i64 noundef %3) #0 comdat align 2 {
  %5 = alloca i64, align 8
  %6 = alloca ptr, align 8
  %7 = alloca ptr, align 8
  %8 = alloca i64, align 8
  %9 = alloca i64, align 8
  %10 = alloca ptr, align 8
  %11 = alloca i32, align 4
  store ptr %0, ptr %6, align 8, !tbaa !4
  store ptr %1, ptr %7, align 8, !tbaa !16
  store i64 %2, ptr %8, align 8, !tbaa !15
  store i64 %3, ptr %9, align 8, !tbaa !15
  %12 = load ptr, ptr %6, align 8
  br label %13

13:                                               ; preds = %39, %4
  %14 = load i64, ptr %9, align 8, !tbaa !15
  %15 = icmp ne i64 %14, 0
  br i1 %15, label %16, label %21

16:                                               ; preds = %13
  %17 = load i64, ptr %8, align 8, !tbaa !15
  %18 = getelementptr inbounds nuw %"class.std::basic_string_view", ptr %12, i32 0, i32 0
  %19 = load i64, ptr %18, align 8, !tbaa !9
  %20 = icmp ult i64 %17, %19
  br label %21

21:                                               ; preds = %16, %13
  %22 = phi i1 [ false, %13 ], [ %20, %16 ]
  br i1 %22, label %23, label %42

23:                                               ; preds = %21
  call void @llvm.lifetime.start.p0(i64 8, ptr %10) #13
  %24 = load ptr, ptr %7, align 8, !tbaa !16
  %25 = load i64, ptr %9, align 8, !tbaa !15
  %26 = getelementptr inbounds nuw %"class.std::basic_string_view", ptr %12, i32 0, i32 1
  %27 = load ptr, ptr %26, align 8, !tbaa !13
  %28 = load i64, ptr %8, align 8, !tbaa !15
  %29 = getelementptr inbounds nuw i8, ptr %27, i64 %28
  %30 = call noundef ptr @_ZNSt11char_traitsIcE4findEPKcmRS1_(ptr noundef %24, i64 noundef %25, ptr noundef nonnull align 1 dereferenceable(1) %29)
  store ptr %30, ptr %10, align 8, !tbaa !16
  %31 = load ptr, ptr %10, align 8, !tbaa !16
  %32 = icmp ne ptr %31, null
  br i1 %32, label %33, label %35

33:                                               ; preds = %23
  %34 = load i64, ptr %8, align 8, !tbaa !15
  store i64 %34, ptr %5, align 8
  store i32 1, ptr %11, align 4
  br label %36

35:                                               ; preds = %23
  store i32 0, ptr %11, align 4
  br label %36

36:                                               ; preds = %35, %33
  call void @llvm.lifetime.end.p0(i64 8, ptr %10) #13
  %37 = load i32, ptr %11, align 4
  switch i32 %37, label %45 [
    i32 0, label %38
    i32 1, label %43
  ]

38:                                               ; preds = %36
  br label %39

39:                                               ; preds = %38
  %40 = load i64, ptr %8, align 8, !tbaa !15
  %41 = add i64 %40, 1
  store i64 %41, ptr %8, align 8, !tbaa !15
  br label %13, !llvm.loop !28

42:                                               ; preds = %21
  store i64 -1, ptr %5, align 8
  br label %43

43:                                               ; preds = %42, %36
  %44 = load i64, ptr %5, align 8
  ret i64 %44

45:                                               ; preds = %36
  unreachable
}

; Function Attrs: mustprogress nounwind uwtable
define linkonce_odr dso_local noundef i64 @_ZNSt11char_traitsIcE6lengthEPKc(ptr noundef %0) #0 comdat align 2 {
  %2 = alloca ptr, align 8
  store ptr %0, ptr %2, align 8, !tbaa !16
  %3 = load ptr, ptr %2, align 8, !tbaa !16
  %4 = call i64 @strlen(ptr noundef %3) #13
  ret i64 %4
}

; Function Attrs: mustprogress nounwind uwtable
define linkonce_odr dso_local noundef i64 @_ZNKSt17basic_string_viewIcSt11char_traitsIcEE4findEcm(ptr noundef nonnull align 8 dereferenceable(16) %0, i8 noundef signext %1, i64 noundef %2) #0 comdat align 2 personality ptr @__gxx_personality_v0 {
  %4 = alloca ptr, align 8
  %5 = alloca i8, align 1
  %6 = alloca i64, align 8
  %7 = alloca i64, align 8
  %8 = alloca i64, align 8
  %9 = alloca ptr, align 8
  store ptr %0, ptr %4, align 8, !tbaa !4
  store i8 %1, ptr %5, align 1, !tbaa !19
  store i64 %2, ptr %6, align 8, !tbaa !15
  %10 = load ptr, ptr %4, align 8
  call void @llvm.lifetime.start.p0(i64 8, ptr %7) #13
  store i64 -1, ptr %7, align 8, !tbaa !15
  %11 = load i64, ptr %6, align 8, !tbaa !15
  %12 = getelementptr inbounds nuw %"class.std::basic_string_view", ptr %10, i32 0, i32 0
  %13 = load i64, ptr %12, align 8, !tbaa !9
  %14 = icmp ult i64 %11, %13
  br i1 %14, label %15, label %37

15:                                               ; preds = %3
  call void @llvm.lifetime.start.p0(i64 8, ptr %8) #13
  %16 = getelementptr inbounds nuw %"class.std::basic_string_view", ptr %10, i32 0, i32 0
  %17 = load i64, ptr %16, align 8, !tbaa !9
  %18 = load i64, ptr %6, align 8, !tbaa !15
  %19 = sub i64 %17, %18
  store i64 %19, ptr %8, align 8, !tbaa !15
  call void @llvm.lifetime.start.p0(i64 8, ptr %9) #13
  %20 = getelementptr inbounds nuw %"class.std::basic_string_view", ptr %10, i32 0, i32 1
  %21 = load ptr, ptr %20, align 8, !tbaa !13
  %22 = load i64, ptr %6, align 8, !tbaa !15
  %23 = getelementptr inbounds nuw i8, ptr %21, i64 %22
  %24 = load i64, ptr %8, align 8, !tbaa !15
  %25 = invoke noundef ptr @_ZNSt11char_traitsIcE4findEPKcmRS1_(ptr noundef %23, i64 noundef %24, ptr noundef nonnull align 1 dereferenceable(1) %5)
          to label %26 unwind label %39

26:                                               ; preds = %15
  store ptr %25, ptr %9, align 8, !tbaa !16
  %27 = load ptr, ptr %9, align 8, !tbaa !16
  %28 = icmp ne ptr %27, null
  br i1 %28, label %29, label %36

29:                                               ; preds = %26
  %30 = load ptr, ptr %9, align 8, !tbaa !16
  %31 = getelementptr inbounds nuw %"class.std::basic_string_view", ptr %10, i32 0, i32 1
  %32 = load ptr, ptr %31, align 8, !tbaa !13
  %33 = ptrtoint ptr %30 to i64
  %34 = ptrtoint ptr %32 to i64
  %35 = sub i64 %33, %34
  store i64 %35, ptr %7, align 8, !tbaa !15
  br label %36

36:                                               ; preds = %29, %26
  call void @llvm.lifetime.end.p0(i64 8, ptr %9) #13
  call void @llvm.lifetime.end.p0(i64 8, ptr %8) #13
  br label %37

37:                                               ; preds = %36, %3
  %38 = load i64, ptr %7, align 8, !tbaa !15
  call void @llvm.lifetime.end.p0(i64 8, ptr %7) #13
  ret i64 %38

39:                                               ; preds = %15
  %40 = landingpad { ptr, i32 }
          catch ptr null
  %41 = extractvalue { ptr, i32 } %40, 0
  call void @__clang_call_terminate(ptr %41) #14
  unreachable
}

; Function Attrs: noinline noreturn nounwind uwtable
define linkonce_odr hidden void @__clang_call_terminate(ptr noundef %0) #2 comdat {
  %2 = call ptr @__cxa_begin_catch(ptr %0) #13
  call void @_ZSt9terminatev() #14
  unreachable
}

; Function Attrs: mustprogress nounwind uwtable
define linkonce_odr dso_local noundef i64 @_ZNKSt17basic_string_viewIcSt11char_traitsIcEE13find_first_ofEPKcm(ptr noundef nonnull align 8 dereferenceable(16) %0, ptr noundef nonnull %1, i64 noundef %2) #0 comdat align 2 personality ptr @__gxx_personality_v0 {
  %4 = alloca ptr, align 8
  %5 = alloca ptr, align 8
  %6 = alloca i64, align 8
  store ptr %0, ptr %4, align 8, !tbaa !4
  store ptr %1, ptr %5, align 8, !tbaa !16
  store i64 %2, ptr %6, align 8, !tbaa !15
  %7 = load ptr, ptr %4, align 8
  %8 = load ptr, ptr %5, align 8, !tbaa !16
  %9 = load i64, ptr %6, align 8, !tbaa !15
  %10 = load ptr, ptr %5, align 8, !tbaa !16
  %11 = invoke noundef i64 @_ZNSt11char_traitsIcE6lengthEPKc(ptr noundef %10)
          to label %12 unwind label %14

12:                                               ; preds = %3
  %13 = call noundef i64 @_ZNKSt17basic_string_viewIcSt11char_traitsIcEE13find_first_ofEPKcmm(ptr noundef nonnull align 8 dereferenceable(16) %7, ptr noundef %8, i64 noundef %9, i64 noundef %11) #13
  ret i64 %13

14:                                               ; preds = %3
  %15 = landingpad { ptr, i32 }
          catch ptr null
  %16 = extractvalue { ptr, i32 } %15, 0
  call void @__clang_call_terminate(ptr %16) #14
  unreachable
}

; Function Attrs: inlinehint mustprogress nounwind uwtable
define linkonce_odr dso_local noundef zeroext i1 @_ZN4absl11StrContainsESt17basic_string_viewIcSt11char_traitsIcEEc(i64 %0, ptr %1, i8 noundef signext %2) #5 comdat {
  %4 = alloca %"class.std::basic_string_view", align 8
  %5 = alloca i8, align 1
  %6 = getelementptr inbounds nuw { i64, ptr }, ptr %4, i32 0, i32 0
  store i64 %0, ptr %6, align 8
  %7 = getelementptr inbounds nuw { i64, ptr }, ptr %4, i32 0, i32 1
  store ptr %1, ptr %7, align 8
  store i8 %2, ptr %5, align 1, !tbaa !19
  %8 = load i8, ptr %5, align 1, !tbaa !19
  %9 = call noundef i64 @_ZNKSt17basic_string_viewIcSt11char_traitsIcEE4findEcm(ptr noundef nonnull align 8 dereferenceable(16) %4, i8 noundef signext %8, i64 noundef 0) #13
  %10 = icmp ne i64 %9, -1
  ret i1 %10
}

; Function Attrs: inlinehint mustprogress nounwind uwtable
define linkonce_odr dso_local noundef signext i8 @_ZN4absl13ascii_tolowerEh(i8 noundef zeroext %0) #5 comdat {
  %2 = alloca i8, align 1
  store i8 %0, ptr %2, align 1, !tbaa !19
  %3 = load i8, ptr %2, align 1, !tbaa !19
  %4 = zext i8 %3 to i64
  %5 = getelementptr inbounds nuw [256 x i8], ptr @_ZN4absl14ascii_internal8kToLowerE, i64 0, i64 %4
  %6 = load i8, ptr %5, align 1, !tbaa !19
  ret i8 %6
}

; Function Attrs: inlinehint mustprogress nounwind uwtable
define linkonce_odr dso_local noundef signext i8 @_ZN4absl13ascii_toupperEh(i8 noundef zeroext %0) #5 comdat {
  %2 = alloca i8, align 1
  store i8 %0, ptr %2, align 1, !tbaa !19
  %3 = load i8, ptr %2, align 1, !tbaa !19
  %4 = zext i8 %3 to i64
  %5 = getelementptr inbounds nuw [256 x i8], ptr @_ZN4absl14ascii_internal8kToUpperE, i64 0, i64 %4
  %6 = load i8, ptr %5, align 1, !tbaa !19
  ret i8 %6
}

; Function Attrs: mustprogress nounwind uwtable
define dso_local noundef zeroext i1 @_ZN4absl21StrContainsIgnoreCaseESt17basic_string_viewIcSt11char_traitsIcEEc(i64 %0, ptr %1, i8 noundef signext %2) #0 personality ptr @__gxx_personality_v0 {
  %4 = alloca i1, align 1
  %5 = alloca %"class.std::basic_string_view", align 8
  %6 = alloca i8, align 1
  %7 = alloca i8, align 1
  %8 = alloca i8, align 1
  %9 = alloca %"class.std::basic_string_view", align 8
  %10 = alloca i32, align 4
  %11 = alloca [3 x i8], align 1
  %12 = getelementptr inbounds nuw { i64, ptr }, ptr %5, i32 0, i32 0
  store i64 %0, ptr %12, align 8
  %13 = getelementptr inbounds nuw { i64, ptr }, ptr %5, i32 0, i32 1
  store ptr %1, ptr %13, align 8
  store i8 %2, ptr %6, align 1, !tbaa !19
  call void @llvm.lifetime.start.p0(i64 1, ptr %7) #13
  %14 = load i8, ptr %6, align 1, !tbaa !19
  %15 = invoke noundef signext i8 @_ZN4absl13ascii_toupperEh(i8 noundef zeroext %14)
          to label %16 unwind label %42

16:                                               ; preds = %3
  store i8 %15, ptr %7, align 1, !tbaa !19
  call void @llvm.lifetime.start.p0(i64 1, ptr %8) #13
  %17 = load i8, ptr %6, align 1, !tbaa !19
  %18 = invoke noundef signext i8 @_ZN4absl13ascii_tolowerEh(i8 noundef zeroext %17)
          to label %19 unwind label %42

19:                                               ; preds = %16
  store i8 %18, ptr %8, align 1, !tbaa !19
  %20 = load i8, ptr %7, align 1, !tbaa !19
  %21 = sext i8 %20 to i32
  %22 = load i8, ptr %8, align 1, !tbaa !19
  %23 = sext i8 %22 to i32
  %24 = icmp eq i32 %21, %23
  br i1 %24, label %25, label %32

25:                                               ; preds = %19
  call void @llvm.memcpy.p0.p0.i64(ptr align 8 %9, ptr align 8 %5, i64 16, i1 false), !tbaa.struct !14
  %26 = load i8, ptr %6, align 1, !tbaa !19
  %27 = getelementptr inbounds nuw { i64, ptr }, ptr %9, i32 0, i32 0
  %28 = load i64, ptr %27, align 8
  %29 = getelementptr inbounds nuw { i64, ptr }, ptr %9, i32 0, i32 1
  %30 = load ptr, ptr %29, align 8
  %31 = call noundef zeroext i1 @_ZN4absl11StrContainsESt17basic_string_viewIcSt11char_traitsIcEEc(i64 %28, ptr %30, i8 noundef signext %26) #13
  store i1 %31, ptr %4, align 1
  store i32 1, ptr %10, align 4
  br label %40

32:                                               ; preds = %19
  call void @llvm.lifetime.start.p0(i64 3, ptr %11) #13
  %33 = load i8, ptr %8, align 1, !tbaa !19
  store i8 %33, ptr %11, align 1, !tbaa !19
  %34 = getelementptr inbounds i8, ptr %11, i64 1
  %35 = load i8, ptr %7, align 1, !tbaa !19
  store i8 %35, ptr %34, align 1, !tbaa !19
  %36 = getelementptr inbounds i8, ptr %11, i64 2
  store i8 0, ptr %36, align 1, !tbaa !19
  %37 = getelementptr inbounds [3 x i8], ptr %11, i64 0, i64 0
  %38 = call noundef i64 @_ZNKSt17basic_string_viewIcSt11char_traitsIcEE13find_first_ofEPKcm(ptr noundef nonnull align 8 dereferenceable(16) %5, ptr noundef %37, i64 noundef 0) #13
  %39 = icmp ne i64 %38, -1
  store i1 %39, ptr %4, align 1
  store i32 1, ptr %10, align 4
  call void @llvm.lifetime.end.p0(i64 3, ptr %11) #13
  br label %40

40:                                               ; preds = %32, %25
  call void @llvm.lifetime.end.p0(i64 1, ptr %8) #13
  call void @llvm.lifetime.end.p0(i64 1, ptr %7) #13
  %41 = load i1, ptr %4, align 1
  ret i1 %41

42:                                               ; preds = %16, %3
  %43 = landingpad { ptr, i32 }
          catch ptr null
  %44 = extractvalue { ptr, i32 } %43, 0
  call void @__clang_call_terminate(ptr %44) #14
  unreachable
}