; Function Attrs: mustprogress nofree nounwind willreturn memory(argmem: read) uwtable
define dso_local noundef zeroext i1 @_ZN4absl21StrContainsIgnoreCaseESt17basic_string_viewIcSt11char_traitsIcEEc(i64 %0, ptr %1, i8 noundef signext %2) local_unnamed_addr #4 personality ptr @__gxx_personality_v0 {
  %4 = alloca [3 x i8], align 1
  %5 = zext i8 %2 to i64
  %6 = getelementptr inbounds nuw [256 x i8], ptr @_ZN4absl14ascii_internal8kToUpperE, i64 0, i64 %5
  %7 = load i8, ptr %6, align 1, !tbaa !6
  %8 = getelementptr inbounds nuw [256 x i8], ptr @_ZN4absl14ascii_internal8kToLowerE, i64 0, i64 %5
  %9 = load i8, ptr %8, align 1, !tbaa !6
  %10 = icmp eq i8 %7, %9
  br i1 %10, label %11, label %19

11:                                               ; preds = %3
  %.not.i = icmp eq i64 %0, 0
  br i1 %.not.i, label %_ZN4absl11StrContainsESt17basic_string_viewIcSt11char_traitsIcEEc.exit, label %_ZNSt11char_traitsIcE4findEPKcmRS1_.exit.i.i

_ZNSt11char_traitsIcE4findEPKcmRS1_.exit.i.i:     ; preds = %11
  %12 = sext i8 %2 to i32
  %13 = tail call ptr @memchr(ptr noundef %1, i32 noundef %12, i64 noundef %0) #11
  %.not.i.i = icmp ne ptr %13, null
  %14 = ptrtoint ptr %13 to i64
  %15 = ptrtoint ptr %1 to i64
  %16 = sub i64 %14, %15
  %17 = icmp ne i64 %16, -1
  %18 = select i1 %.not.i.i, i1 %17, i1 false
  br label %_ZN4absl11StrContainsESt17basic_string_viewIcSt11char_traitsIcEEc.exit

19:                                               ; preds = %3
  call void @llvm.lifetime.start.p0(i64 3, ptr nonnull %4) #11
  store i8 %9, ptr %4, align 1, !tbaa !6
  %20 = getelementptr inbounds nuw i8, ptr %4, i64 1
  store i8 %7, ptr %20, align 1, !tbaa !6
  %21 = getelementptr inbounds nuw i8, ptr %4, i64 2
  store i8 0, ptr %21, align 1, !tbaa !6
  %22 = call noundef i64 @strlen(ptr noundef nonnull dereferenceable(1) %4) #11
  %.not.i.i7 = icmp ne i64 %22, 0
  %23 = icmp ne i64 %0, 0
  %or.cond15.i.i = select i1 %.not.i.i7, i1 %23, i1 false
  br i1 %or.cond15.i.i, label %_ZNSt11char_traitsIcE4findEPKcmRS1_.exit.i.i8, label %_ZNKSt17basic_string_viewIcSt11char_traitsIcEE13find_first_ofEPKcm.exit

_ZNSt11char_traitsIcE4findEPKcmRS1_.exit.i.i8:    ; preds = %19, %28
  %.01116.i.i = phi i64 [ %29, %28 ], [ 0, %19 ]
  %24 = getelementptr inbounds nuw i8, ptr %1, i64 %.01116.i.i
  %25 = load i8, ptr %24, align 1, !tbaa !6
  %26 = sext i8 %25 to i32
  %27 = call ptr @memchr(ptr noundef nonnull %4, i32 noundef %26, i64 noundef %22) #11
  %.not13.not.i.i = icmp eq ptr %27, null
  br i1 %.not13.not.i.i, label %28, label %_ZNKSt17basic_string_viewIcSt11char_traitsIcEE13find_first_ofEPKcm.exit.loopexit

28:                                               ; preds = %_ZNSt11char_traitsIcE4findEPKcmRS1_.exit.i.i8
  %29 = add nuw i64 %.01116.i.i, 1
  %exitcond.not.i.i = icmp eq i64 %29, %0
  br i1 %exitcond.not.i.i, label %_ZNKSt17basic_string_viewIcSt11char_traitsIcEE13find_first_ofEPKcm.exit.loopexit, label %_ZNSt11char_traitsIcE4findEPKcmRS1_.exit.i.i8, !llvm.loop !9

_ZNKSt17basic_string_viewIcSt11char_traitsIcEE13find_first_ofEPKcm.exit.loopexit: ; preds = %28, %_ZNSt11char_traitsIcE4findEPKcmRS1_.exit.i.i8
  %.2.i.i.ph = phi i64 [ -1, %28 ], [ %.01116.i.i, %_ZNSt11char_traitsIcE4findEPKcmRS1_.exit.i.i8 ]
  %30 = icmp ne i64 %.2.i.i.ph, -1
  br label %_ZNKSt17basic_string_viewIcSt11char_traitsIcEE13find_first_ofEPKcm.exit

_ZNKSt17basic_string_viewIcSt11char_traitsIcEE13find_first_ofEPKcm.exit: ; preds = %_ZNKSt17basic_string_viewIcSt11char_traitsIcEE13find_first_ofEPKcm.exit.loopexit, %19
  %.2.i.i = phi i1 [ false, %19 ], [ %30, %_ZNKSt17basic_string_viewIcSt11char_traitsIcEE13find_first_ofEPKcm.exit.loopexit ]
  call void @llvm.lifetime.end.p0(i64 3, ptr nonnull %4) #11
  br label %_ZN4absl11StrContainsESt17basic_string_viewIcSt11char_traitsIcEEc.exit

_ZN4absl11StrContainsESt17basic_string_viewIcSt11char_traitsIcEEc.exit: ; preds = %_ZNSt11char_traitsIcE4findEPKcmRS1_.exit.i.i, %11, %_ZNKSt17basic_string_viewIcSt11char_traitsIcEE13find_first_ofEPKcm.exit
  %.0 = phi i1 [ %.2.i.i, %_ZNKSt17basic_string_viewIcSt11char_traitsIcEE13find_first_ofEPKcm.exit ], [ %18, %_ZNSt11char_traitsIcE4findEPKcmRS1_.exit.i.i ], [ false, %11 ]
  ret i1 %.0
}